target datalayout = "e-m:e-p270:32:32-p271:32:32-p272:64:64-i64:64-i128:128-f80:128-n8:16:32:64-S128"
target triple = "x86_64-pc-linux-gnu"

%struct.Nwk_Man_t_ = type { ptr, ptr, ptr, ptr, ptr, [5 x i32], i32, ptr, ptr, ptr, ptr, ptr, i32, i32, i32, i32, i32 }
%struct.Nwk_Obj_t_ = type { ptr, ptr, ptr, %union.anon, i32, i32, i32, i32, float, float, float, i32, i32, i32, ptr }
%union.anon = type { ptr }

@.str.1 = private unnamed_addr constant [15 x i8] c"ObjId = %5d.  \00", align 1
@.str.2 = private unnamed_addr constant [3 x i8] c"PI\00", align 1
@.str.3 = private unnamed_addr constant [3 x i8] c"PO\00", align 1
@.str.4 = private unnamed_addr constant [5 x i8] c"Node\00", align 1
@.str.5 = private unnamed_addr constant [13 x i8] c"   Fanins = \00", align 1
@.str.6 = private unnamed_addr constant [4 x i8] c"%d \00", align 1
@.str.7 = private unnamed_addr constant [14 x i8] c"   Fanouts = \00", align 1
@.str.8 = private unnamed_addr constant [2 x i8] c"\0A\00", align 1

; Function Attrs: inlinehint nounwind uwtable
define internal i32 @Nwk_ObjIsCo(ptr noundef %0) #2 {
  %2 = alloca ptr, align 8
  store ptr %0, ptr %2, align 8, !tbaa !19
  %3 = load ptr, ptr %2, align 8, !tbaa !19
  %4 = getelementptr inbounds nuw %struct.Nwk_Obj_t_, ptr %3, i32 0, i32 4
  %5 = load i32, ptr %4, align 8
  %6 = and i32 %5, 7
  %7 = icmp eq i32 %6, 2
  %8 = zext i1 %7 to i32
  ret i32 %8
}

; Function Attrs: inlinehint nounwind uwtable
define internal i32 @Nwk_ObjIsCi(ptr noundef %0) #2 {
  %2 = alloca ptr, align 8
  store ptr %0, ptr %2, align 8, !tbaa !19
  %3 = load ptr, ptr %2, align 8, !tbaa !19
  %4 = getelementptr inbounds nuw %struct.Nwk_Obj_t_, ptr %3, i32 0, i32 4
  %5 = load i32, ptr %4, align 8
  %6 = and i32 %5, 7
  %7 = icmp eq i32 %6, 1
  %8 = zext i1 %7 to i32
  ret i32 %8
}

; Function Attrs: inlinehint nounwind uwtable
define internal i32 @Nwk_ObjIsNode(ptr noundef %0) #2 {
  %2 = alloca ptr, align 8
  store ptr %0, ptr %2, align 8, !tbaa !19
  %3 = load ptr, ptr %2, align 8, !tbaa !19
  %4 = getelementptr inbounds nuw %struct.Nwk_Obj_t_, ptr %3, i32 0, i32 4
  %5 = load i32, ptr %4, align 8
  %6 = and i32 %5, 7
  %7 = icmp eq i32 %6, 3
  %8 = zext i1 %7 to i32
  ret i32 %8
}

; Function Attrs: inlinehint nounwind uwtable
define internal i32 @Nwk_ObjIsPo(ptr noundef %0) #2 {
  %2 = alloca ptr, align 8
  store ptr %0, ptr %2, align 8, !tbaa !19
  %3 = load ptr, ptr %2, align 8, !tbaa !19
  %4 = call i32 @Nwk_ObjIsCo(ptr noundef %3)
  %5 = icmp ne i32 %4, 0
  br i1 %5, label %6, label %27

6:                                                ; preds = %1
  %7 = load ptr, ptr %2, align 8, !tbaa !19
  %8 = getelementptr inbounds nuw %struct.Nwk_Obj_t_, ptr %7, i32 0, i32 0
  %9 = load ptr, ptr %8, align 8, !tbaa !38
  %10 = getelementptr inbounds nuw %struct.Nwk_Man_t_, ptr %9, i32 0, i32 8
  %11 = load ptr, ptr %10, align 8, !tbaa !39
  %12 = icmp eq ptr %11, null
  br i1 %12, label %25, label %13

13:                                               ; preds = %6
  %14 = load ptr, ptr %2, align 8, !tbaa !19
  %15 = getelementptr inbounds nuw %struct.Nwk_Obj_t_, ptr %14, i32 0, i32 0
  %16 = load ptr, ptr %15, align 8, !tbaa !38
  %17 = getelementptr inbounds nuw %struct.Nwk_Man_t_, ptr %16, i32 0, i32 8
  %18 = load ptr, ptr %17, align 8, !tbaa !39
  %19 = load ptr, ptr %2, align 8, !tbaa !19
  %20 = getelementptr inbounds nuw %struct.Nwk_Obj_t_, ptr %19, i32 0, i32 4
  %21 = load i32, ptr %20, align 8
  %22 = lshr i32 %21, 7
  %23 = call i32 @Tim_ManBoxForCo(ptr noundef %18, i32 noundef %22)
  %24 = icmp eq i32 %23, -1
  br label %25

25:                                               ; preds = %13, %6
  %26 = phi i1 [ true, %6 ], [ %24, %13 ]
  br label %27

27:                                               ; preds = %25, %1
  %28 = phi i1 [ false, %1 ], [ %26, %25 ]
  %29 = zext i1 %28 to i32
  ret i32 %29
}

; Function Attrs: inlinehint nounwind uwtable
define internal i32 @Nwk_ObjIsPi(ptr noundef %0) #2 {
  %2 = alloca ptr, align 8
  store ptr %0, ptr %2, align 8, !tbaa !19
  %3 = load ptr, ptr %2, align 8, !tbaa !19
  %4 = call i32 @Nwk_ObjIsCi(ptr noundef %3)
  %5 = icmp ne i32 %4, 0
  br i1 %5, label %6, label %27

6:                                                ; preds = %1
  %7 = load ptr, ptr %2, align 8, !tbaa !19
  %8 = getelementptr inbounds nuw %struct.Nwk_Obj_t_, ptr %7, i32 0, i32 0
  %9 = load ptr, ptr %8, align 8, !tbaa !38
  %10 = getelementptr inbounds nuw %struct.Nwk_Man_t_, ptr %9, i32 0, i32 8
  %11 = load ptr, ptr %10, align 8, !tbaa !39
  %12 = icmp eq ptr %11, null
  br i1 %12, label %25, label %13

13:                                               ; preds = %6
  %14 = load ptr, ptr %2, align 8, !tbaa !19
  %15 = getelementptr inbounds nuw %struct.Nwk_Obj_t_, ptr %14, i32 0, i32 0
  %16 = load ptr, ptr %15, align 8, !tbaa !38
  %17 = getelementptr inbounds nuw %struct.Nwk_Man_t_, ptr %16, i32 0, i32 8
  %18 = load ptr, ptr %17, align 8, !tbaa !39
  %19 = load ptr, ptr %2, align 8, !tbaa !19
  %20 = getelementptr inbounds nuw %struct.Nwk_Obj_t_, ptr %19, i32 0, i32 4
  %21 = load i32, ptr %20, align 8
  %22 = lshr i32 %21, 7
  %23 = call i32 @Tim_ManBoxForCi(ptr noundef %18, i32 noundef %22)
  %24 = icmp eq i32 %23, -1
  br label %25

25:                                               ; preds = %13, %6
  %26 = phi i1 [ true, %6 ], [ %24, %13 ]
  br label %27

27:                                               ; preds = %25, %1
  %28 = phi i1 [ false, %1 ], [ %26, %25 ]
  %29 = zext i1 %28 to i32
  ret i32 %29
}

; Function Attrs: nounwind uwtable
define void @Nwk_ObjPrint(ptr noundef %0) #0 {
  %2 = alloca ptr, align 8
  %3 = alloca ptr, align 8
  %4 = alloca i32, align 4
  store ptr %0, ptr %2, align 8, !tbaa !19
  call void @llvm.lifetime.start.p0(i64 8, ptr %3) #9
  call void @llvm.lifetime.start.p0(i64 4, ptr %4) #9
  %5 = load ptr, ptr %2, align 8, !tbaa !19
  %6 = getelementptr inbounds nuw %struct.Nwk_Obj_t_, ptr %5, i32 0, i32 5
  %7 = load i32, ptr %6, align 4, !tbaa !43
  %8 = call i32 (ptr, ...) @printf(ptr noundef @.str.1, i32 noundef %7)
  %9 = load ptr, ptr %2, align 8, !tbaa !19
  %10 = call i32 @Nwk_ObjIsPi(ptr noundef %9)
  %11 = icmp ne i32 %10, 0
  br i1 %11, label %12, label %14

12:                                               ; preds = %1
  %13 = call i32 (ptr, ...) @printf(ptr noundef @.str.2)
  br label %14

14:                                               ; preds = %12, %1
  %15 = load ptr, ptr %2, align 8, !tbaa !19
  %16 = call i32 @Nwk_ObjIsPo(ptr noundef %15)
  %17 = icmp ne i32 %16, 0
  br i1 %17, label %18, label %20

18:                                               ; preds = %14
  %19 = call i32 (ptr, ...) @printf(ptr noundef @.str.3)
  br label %20

20:                                               ; preds = %18, %14
  %21 = load ptr, ptr %2, align 8, !tbaa !19
  %22 = call i32 @Nwk_ObjIsNode(ptr noundef %21)
  %23 = icmp ne i32 %22, 0
  br i1 %23, label %24, label %26

24:                                               ; preds = %20
  %25 = call i32 (ptr, ...) @printf(ptr noundef @.str.4)
  br label %26

26:                                               ; preds = %24, %20
  %27 = call i32 (ptr, ...) @printf(ptr noundef @.str.5)
  store i32 0, ptr %4, align 4, !tbaa !17
  br label %28

28:                                               ; preds = %50, %26
  %29 = load i32, ptr %4, align 4, !tbaa !17
  %30 = load ptr, ptr %2, align 8, !tbaa !19
  %31 = getelementptr inbounds nuw %struct.Nwk_Obj_t_, ptr %30, i32 0, i32 11
  %32 = load i32, ptr %31, align 4, !tbaa !34
  %33 = icmp slt i32 %29, %32
  br i1 %33, label %34, label %43

34:                                               ; preds = %28
  %35 = load ptr, ptr %2, align 8, !tbaa !19
  %36 = getelementptr inbounds nuw %struct.Nwk_Obj_t_, ptr %35, i32 0, i32 14
  %37 = load ptr, ptr %36, align 8, !tbaa !47
  %38 = load i32, ptr %4, align 4, !tbaa !17
  %39 = sext i32 %38 to i64
  %40 = getelementptr inbounds ptr, ptr %37, i64 %39
  %41 = load ptr, ptr %40, align 8, !tbaa !19
  store ptr %41, ptr %3, align 8, !tbaa !19
  %42 = icmp ne ptr %41, null
  br label %43

43:                                               ; preds = %34, %28
  %44 = phi i1 [ false, %28 ], [ %42, %34 ]
  br i1 %44, label %45, label %53

45:                                               ; preds = %43
  %46 = load ptr, ptr %3, align 8, !tbaa !19
  %47 = getelementptr inbounds nuw %struct.Nwk_Obj_t_, ptr %46, i32 0, i32 5
  %48 = load i32, ptr %47, align 4, !tbaa !43
  %49 = call i32 (ptr, ...) @printf(ptr noundef @.str.6, i32 noundef %48)
  br label %50

50:                                               ; preds = %45
  %51 = load i32, ptr %4, align 4, !tbaa !17
  %52 = add nsw i32 %51, 1
  store i32 %52, ptr %4, align 4, !tbaa !17
  br label %28, !llvm.loop !48

53:                                               ; preds = %43
  %54 = call i32 (ptr, ...) @printf(ptr noundef @.str.7)
  store i32 0, ptr %4, align 4, !tbaa !17
  br label %55

55:                                               ; preds = %81, %53
  %56 = load i32, ptr %4, align 4, !tbaa !17
  %57 = load ptr, ptr %2, align 8, !tbaa !19
  %58 = getelementptr inbounds nuw %struct.Nwk_Obj_t_, ptr %57, i32 0, i32 12
  %59 = load i32, ptr %58, align 8, !tbaa !49
  %60 = icmp slt i32 %56, %59
  br i1 %60, label %61, label %74

61:                                               ; preds = %55
  %62 = load ptr, ptr %2, align 8, !tbaa !19
  %63 = getelementptr inbounds nuw %struct.Nwk_Obj_t_, ptr %62, i32 0, i32 14
  %64 = load ptr, ptr %63, align 8, !tbaa !47
  %65 = load ptr, ptr %2, align 8, !tbaa !19
  %66 = getelementptr inbounds nuw %struct.Nwk_Obj_t_, ptr %65, i32 0, i32 11
  %67 = load i32, ptr %66, align 4, !tbaa !34
  %68 = load i32, ptr %4, align 4, !tbaa !17
  %69 = add nsw i32 %67, %68
  %70 = sext i32 %69 to i64
  %71 = getelementptr inbounds ptr, ptr %64, i64 %70
  %72 = load ptr, ptr %71, align 8, !tbaa !19
  store ptr %72, ptr %3, align 8, !tbaa !19
  %73 = icmp ne ptr %72, null
  br label %74

74:                                               ; preds = %61, %55
  %75 = phi i1 [ false, %55 ], [ %73, %61 ]
  br i1 %75, label %76, label %84

76:                                               ; preds = %74
  %77 = load ptr, ptr %3, align 8, !tbaa !19
  %78 = getelementptr inbounds nuw %struct.Nwk_Obj_t_, ptr %77, i32 0, i32 5
  %79 = load i32, ptr %78, align 4, !tbaa !43
  %80 = call i32 (ptr, ...) @printf(ptr noundef @.str.6, i32 noundef %79)
  br label %81

81:                                               ; preds = %76
  %82 = load i32, ptr %4, align 4, !tbaa !17
  %83 = add nsw i32 %82, 1
  store i32 %83, ptr %4, align 4, !tbaa !17
  br label %55, !llvm.loop !50

84:                                               ; preds = %74
  %85 = call i32 (ptr, ...) @printf(ptr noundef @.str.8)
  call void @llvm.lifetime.end.p0(i64 4, ptr %4) #9
  call void @llvm.lifetime.end.p0(i64 8, ptr %3) #9
  ret void
}