; Function Attrs: nounwind uwtable
define void @Nwk_ObjPrint(ptr noundef readonly captures(none) %0) local_unnamed_addr #3 {
  %2 = getelementptr inbounds nuw i8, ptr %0, i64 36
  %3 = load i32, ptr %2, align 4, !tbaa !38
  %4 = tail call i32 (ptr, ...) @printf(ptr noundef nonnull dereferenceable(1) @.str.1, i32 noundef %3)
  %5 = getelementptr i8, ptr %0, i64 32
  %.val.i = load i32, ptr %5, align 8
  %6 = and i32 %.val.i, 7
  %.not.i = icmp eq i32 %6, 1
  br i1 %.not.i, label %7, label %Nwk_ObjIsPi.exit.thread

7:                                                ; preds = %1
  %8 = load ptr, ptr %0, align 8, !tbaa !32
  %9 = getelementptr inbounds nuw i8, ptr %8, i64 72
  %10 = load ptr, ptr %9, align 8, !tbaa !33
  %11 = icmp eq ptr %10, null
  br i1 %11, label %Nwk_ObjIsPi.exit.thread27, label %Nwk_ObjIsPi.exit

Nwk_ObjIsPi.exit:                                 ; preds = %7
  %12 = lshr i32 %.val.i, 7
  %13 = tail call i32 @Tim_ManBoxForCi(ptr noundef nonnull %10, i32 noundef %12) #17
  %.not = icmp eq i32 %13, -1
  br i1 %.not, label %Nwk_ObjIsPi.exit.thread27, label %Nwk_ObjIsPi.exit.thread

Nwk_ObjIsPi.exit.thread27:                        ; preds = %7, %Nwk_ObjIsPi.exit
  %14 = tail call i32 (ptr, ...) @printf(ptr noundef nonnull dereferenceable(1) @.str.2)
  br label %Nwk_ObjIsPi.exit.thread

Nwk_ObjIsPi.exit.thread:                          ; preds = %1, %Nwk_ObjIsPi.exit.thread27, %Nwk_ObjIsPi.exit
  %.val.i24 = load i32, ptr %5, align 8
  %15 = and i32 %.val.i24, 7
  %.not.i25 = icmp eq i32 %15, 2
  br i1 %.not.i25, label %16, label %Nwk_ObjIsPo.exit.thread

16:                                               ; preds = %Nwk_ObjIsPi.exit.thread
  %17 = load ptr, ptr %0, align 8, !tbaa !32
  %18 = getelementptr inbounds nuw i8, ptr %17, i64 72
  %19 = load ptr, ptr %18, align 8, !tbaa !33
  %20 = icmp eq ptr %19, null
  br i1 %20, label %Nwk_ObjIsPo.exit.thread30, label %Nwk_ObjIsPo.exit

Nwk_ObjIsPo.exit:                                 ; preds = %16
  %21 = lshr i32 %.val.i24, 7
  %22 = tail call i32 @Tim_ManBoxForCo(ptr noundef nonnull %19, i32 noundef %21) #17
  %.not32 = icmp eq i32 %22, -1
  br i1 %.not32, label %Nwk_ObjIsPo.exit.thread30, label %Nwk_ObjIsPo.exit.thread

Nwk_ObjIsPo.exit.thread30:                        ; preds = %16, %Nwk_ObjIsPo.exit
  %23 = tail call i32 (ptr, ...) @printf(ptr noundef nonnull dereferenceable(1) @.str.3)
  br label %Nwk_ObjIsPo.exit.thread

Nwk_ObjIsPo.exit.thread:                          ; preds = %Nwk_ObjIsPi.exit.thread, %Nwk_ObjIsPo.exit.thread30, %Nwk_ObjIsPo.exit
  %.val = load i32, ptr %5, align 8
  %24 = and i32 %.val, 7
  %.not33 = icmp eq i32 %24, 3
  br i1 %.not33, label %25, label %27

25:                                               ; preds = %Nwk_ObjIsPo.exit.thread
  %26 = tail call i32 (ptr, ...) @printf(ptr noundef nonnull dereferenceable(1) @.str.4)
  br label %27

27:                                               ; preds = %25, %Nwk_ObjIsPo.exit.thread
  %28 = tail call i32 (ptr, ...) @printf(ptr noundef nonnull dereferenceable(1) @.str.5)
  %29 = getelementptr inbounds nuw i8, ptr %0, i64 72
  %30 = getelementptr inbounds nuw i8, ptr %0, i64 60
  %31 = load i32, ptr %30, align 4, !tbaa !28
  %32 = icmp sgt i32 %31, 0
  br i1 %32, label %.lr.ph, label %.critedge

.lr.ph:                                           ; preds = %27, %36
  %indvars.iv = phi i64 [ %indvars.iv.next, %36 ], [ 0, %27 ]
  %33 = load ptr, ptr %29, align 8, !tbaa !43
  %34 = getelementptr inbounds nuw ptr, ptr %33, i64 %indvars.iv
  %35 = load ptr, ptr %34, align 8, !tbaa !40
  %.not22 = icmp eq ptr %35, null
  br i1 %.not22, label %.critedge, label %36

36:                                               ; preds = %.lr.ph
  %37 = getelementptr inbounds nuw i8, ptr %35, i64 36
  %38 = load i32, ptr %37, align 4, !tbaa !38
  %39 = tail call i32 (ptr, ...) @printf(ptr noundef nonnull dereferenceable(1) @.str.6, i32 noundef %38)
  %indvars.iv.next = add nuw nsw i64 %indvars.iv, 1
  %40 = load i32, ptr %30, align 4, !tbaa !28
  %41 = sext i32 %40 to i64
  %42 = icmp slt i64 %indvars.iv.next, %41
  br i1 %42, label %.lr.ph, label %.critedge, !llvm.loop !44

.critedge:                                        ; preds = %.lr.ph, %36, %27
  %43 = tail call i32 (ptr, ...) @printf(ptr noundef nonnull dereferenceable(1) @.str.7)
  %44 = getelementptr inbounds nuw i8, ptr %0, i64 64
  %45 = load i32, ptr %44, align 8, !tbaa !45
  %46 = icmp sgt i32 %45, 0
  br i1 %46, label %.lr.ph37, label %.critedge2

.lr.ph37:                                         ; preds = %.critedge, %53
  %.136 = phi i32 [ %57, %53 ], [ 0, %.critedge ]
  %47 = load ptr, ptr %29, align 8, !tbaa !43
  %48 = load i32, ptr %30, align 4, !tbaa !28
  %49 = add nsw i32 %48, %.136
  %50 = sext i32 %49 to i64
  %51 = getelementptr inbounds ptr, ptr %47, i64 %50
  %52 = load ptr, ptr %51, align 8, !tbaa !40
  %.not23 = icmp eq ptr %52, null
  br i1 %.not23, label %.critedge2, label %53

53:                                               ; preds = %.lr.ph37
  %54 = getelementptr inbounds nuw i8, ptr %52, i64 36
  %55 = load i32, ptr %54, align 4, !tbaa !38
  %56 = tail call i32 (ptr, ...) @printf(ptr noundef nonnull dereferenceable(1) @.str.6, i32 noundef %55)
  %57 = add nuw nsw i32 %.136, 1
  %58 = load i32, ptr %44, align 8, !tbaa !45
  %59 = icmp slt i32 %57, %58
  br i1 %59, label %.lr.ph37, label %.critedge2, !llvm.loop !46

.critedge2:                                       ; preds = %.lr.ph37, %53, %.critedge
  %putchar = tail call i32 @putchar(i32 10)
  ret void
}